; Function Attrs: nounwind uwtable
define ptr @l_Lean_Compiler_LCNF_normFunDecl___rarg___lambda__1___boxed(ptr noundef %0, ptr noundef %1, ptr noundef %2, ptr noundef %3) #2 {
  %5 = ptrtoint ptr %0 to i64
  %6 = and i64 %5, 1
  %.not = icmp eq i64 %6, 0
  br i1 %.not, label %7, label %lean_dec.exit

7:                                                ; preds = %4
  %8 = load i32, ptr %0, align 4, !tbaa !8
  %9 = icmp sgt i32 %8, 1
  br i1 %9, label %10, label %12, !prof !11

10:                                               ; preds = %7
  %11 = add nsw i32 %8, -1
  store i32 %11, ptr %0, align 4, !tbaa !8
  br label %lean_dec.exit

12:                                               ; preds = %7
  %.not.i = icmp eq i32 %8, 0
  br i1 %.not.i, label %lean_dec.exit, label %13

13:                                               ; preds = %12
  tail call void @lean_dec_ref_cold(ptr noundef nonnull %0) #6
  br label %lean_dec.exit

lean_dec.exit:                                    ; preds = %13, %12, %10, %4
  tail call void @lean_inc_heartbeat() #6
  %14 = tail call noalias ptr @mi_malloc_small(i64 noundef 48) #6
  %15 = icmp eq ptr %14, null
  br i1 %15, label %16, label %l_Lean_Compiler_LCNF_normFunDecl___rarg___lambda__1.exit

16:                                               ; preds = %lean_dec.exit
  tail call void @lean_internal_panic_out_of_memory() #7
  unreachable

l_Lean_Compiler_LCNF_normFunDecl___rarg___lambda__1.exit: ; preds = %lean_dec.exit
  %17 = and i64 %5, 510
  %18 = or disjoint i64 %17, 1
  %19 = inttoptr i64 %18 to ptr
  %20 = getelementptr inbounds nuw i8, ptr %14, i64 4
  store i32 1, ptr %14, align 4, !tbaa !8
  store i32 -184549328, ptr %20, align 4
  %21 = getelementptr inbounds nuw i8, ptr %14, i64 8
  store ptr @l_Lean_Compiler_LCNF_normFunDeclImp___boxed, ptr %21, align 8, !tbaa !4
  %22 = getelementptr inbounds nuw i8, ptr %14, i64 16
  store i16 8, ptr %22, align 8, !tbaa !12
  %23 = getelementptr inbounds nuw i8, ptr %14, i64 18
  store i16 3, ptr %23, align 2, !tbaa !12
  %24 = getelementptr inbounds nuw i8, ptr %14, i64 24
  store ptr %19, ptr %24, align 8, !tbaa !4
  %25 = getelementptr inbounds nuw i8, ptr %14, i64 32
  store ptr %1, ptr %25, align 8, !tbaa !4
  %26 = getelementptr inbounds nuw i8, ptr %14, i64 40
  store ptr %3, ptr %26, align 8, !tbaa !4
  %27 = tail call ptr @lean_apply_2(ptr noundef %2, ptr noundef nonnull inttoptr (i64 1 to ptr), ptr noundef nonnull %14) #6
  ret ptr %27
}